target datalayout = "e-m:e-p270:32:32-p271:32:32-p272:64:64-i64:64-i128:128-f80:128-n8:16:32:64-S128"
target triple = "x86_64-pc-linux-gnu"

%class.ShadowMapping = type <{ %class.DecorateShader, float, i32, i32, i32, i32, [4 x i8] }>
%class.DecorateShader = type { ptr, i8, i32, i32, i32 }

; Function Attrs: mustprogress nounwind uwtable
define linkonce_odr void @_ZN14DecorateShaderC2Ev(ptr noundef nonnull align 8 dereferenceable(24) %0) unnamed_addr #0 comdat align 2 {
  %2 = alloca ptr, align 8
  store ptr %0, ptr %2, align 8
  %3 = load ptr, ptr %2, align 8
  store ptr getelementptr inbounds ({ [8 x ptr] }, ptr @_ZTV14DecorateShader, i32 0, i32 0, i32 2), ptr %3, align 8
  %4 = getelementptr inbounds %class.DecorateShader, ptr %3, i32 0, i32 1
  store i8 0, ptr %4, align 8
  %5 = getelementptr inbounds %class.DecorateShader, ptr %3, i32 0, i32 2
  store i32 1024, ptr %5, align 4
  %6 = getelementptr inbounds %class.DecorateShader, ptr %3, i32 0, i32 3
  store i32 1024, ptr %6, align 8
  ret void
}

; Function Attrs: mustprogress uwtable
define void @_ZN13ShadowMappingC2Ef(ptr noundef nonnull align 8 dereferenceable(44) %0, float noundef %1) unnamed_addr #1 align 2 {
  %3 = alloca ptr, align 8
  %4 = alloca float, align 4
  store ptr %0, ptr %3, align 8
  store float %1, ptr %4, align 4
  %5 = load ptr, ptr %3, align 8
  call void @_ZN14DecorateShaderC2Ev(ptr noundef nonnull align 8 dereferenceable(24) %5)
  store ptr getelementptr inbounds ({ [8 x ptr] }, ptr @_ZTV13ShadowMapping, i32 0, i32 0, i32 2), ptr %5, align 8
  %6 = load float, ptr %4, align 4
  %7 = getelementptr inbounds %class.ShadowMapping, ptr %5, i32 0, i32 1
  store float %6, ptr %7, align 8
  %8 = getelementptr inbounds %class.ShadowMapping, ptr %5, i32 0, i32 4
  store i32 0, ptr %8, align 4
  %9 = getelementptr inbounds %class.ShadowMapping, ptr %5, i32 0, i32 5
  store i32 0, ptr %9, align 8
  %10 = getelementptr inbounds %class.ShadowMapping, ptr %5, i32 0, i32 3
  store i32 0, ptr %10, align 8
  %11 = getelementptr inbounds %class.DecorateShader, ptr %5, i32 0, i32 4
  store i32 0, ptr %11, align 4
  ret void
}