; Function Attrs: mustprogress nofree norecurse nosync nounwind willreturn memory(argmem: write) uwtable
define void @_ZN13ShadowMappingC2Ef(ptr nocapture noundef nonnull writeonly align 8 dereferenceable(44) %0, float noundef %1) unnamed_addr #11 align 2 {
  %3 = getelementptr inbounds i8, ptr %0, i64 8
  store i8 0, ptr %3, align 8
  %4 = getelementptr inbounds i8, ptr %0, i64 12
  store i32 1024, ptr %4, align 4
  %5 = getelementptr inbounds i8, ptr %0, i64 16
  store i32 1024, ptr %5, align 8
  store ptr getelementptr inbounds ({ [8 x ptr] }, ptr @_ZTV13ShadowMapping, i64 0, i32 0, i64 2), ptr %0, align 8
  %6 = getelementptr inbounds i8, ptr %0, i64 24
  store float %1, ptr %6, align 8
  %7 = getelementptr inbounds i8, ptr %0, i64 36
  store i32 0, ptr %7, align 4
  %8 = getelementptr inbounds i8, ptr %0, i64 40
  store i32 0, ptr %8, align 8
  %9 = getelementptr inbounds i8, ptr %0, i64 32
  store i32 0, ptr %9, align 8
  %10 = getelementptr inbounds i8, ptr %0, i64 20
  store i32 0, ptr %10, align 4
  ret void
}